(dp0
S'postgresql_status'
p1
S'true'
p2
sS'get_eumetcast_status'
p3
S'false'
p4
sS'get_internet_status'
p5
S'false'
p6
sS'internet_connection_status'
p7
S'false'
p8
sS'active_version'
p9
S'2.0.4'
p10
sS'system_execution_time'
p11
S'2015-09-07 11:55:04'
p12
sS'disk_status'
p13
S'true'
p14
sS'processing_status'
p15
S'false'
p16
sS'system_status'
p17
S'true'
p18
sS'mode'
p19
S'recovery'
p20
sS'ingestion_status'
p21
S'false'
p22
s.